target datalayout = "e-m:e-p270:32:32-p271:32:32-p272:64:64-i64:64-i128:128-f80:128-n8:16:32:64-S128"
target triple = "x86_64-unknown-linux-gnu"

@.str.11 = private unnamed_addr constant [11 x i8] c" {%3.1f%%}\00", align 1

; Function Attrs: mustprogress uwtable
define dso_local void @_ZNK4base9Histogram23WriteAsciiBucketContextEliljPNSt7__cxx1112basic_stringIcSt11char_traitsIcESaIcEEE(ptr noundef nonnull align 8 dereferenceable(81) %this, i64 noundef %past, i32 noundef %current, i64 noundef %remaining, i32 noundef %i, ptr noundef %output) #0 align 2 {
entry:
  %this.addr = alloca ptr, align 8
  %past.addr = alloca i64, align 8
  %current.addr = alloca i32, align 4
  %remaining.addr = alloca i64, align 8
  %i.addr = alloca i32, align 4
  %output.addr = alloca ptr, align 8
  %scaled_sum = alloca double, align 8
  %percentage = alloca double, align 8
  store ptr %this, ptr %this.addr, align 8
  store i64 %past, ptr %past.addr, align 8
  store i32 %current, ptr %current.addr, align 4
  store i64 %remaining, ptr %remaining.addr, align 8
  store i32 %i, ptr %i.addr, align 4
  store ptr %output, ptr %output.addr, align 8
  %this1 = load ptr, ptr %this.addr, align 8
  %0 = load i64, ptr %past.addr, align 8
  %1 = load i32, ptr %current.addr, align 4
  %conv = sext i32 %1 to i64
  %add = add nsw i64 %0, %conv
  %2 = load i64, ptr %remaining.addr, align 8
  %add2 = add nsw i64 %add, %2
  %conv3 = sitofp i64 %add2 to double
  %div = fdiv double %conv3, 1.000000e+02
  store double %div, ptr %scaled_sum, align 8
  %3 = load i32, ptr %current.addr, align 4
  %4 = load double, ptr %scaled_sum, align 8
  %5 = load ptr, ptr %output.addr, align 8
  call void @_ZNK4base13HistogramBase21WriteAsciiBucketValueEidPNSt7__cxx1112basic_stringIcSt11char_traitsIcESaIcEEE(ptr noundef nonnull align 8 dereferenceable(44) %this1, i32 noundef %3, double noundef %4, ptr noundef %5)
  %6 = load i32, ptr %i.addr, align 4
  %cmp = icmp ult i32 0, %6
  br i1 %cmp, label %if.then, label %if.end

if.then:                                          ; preds = %entry
  %7 = load i64, ptr %past.addr, align 8
  %conv4 = sitofp i64 %7 to double
  %8 = load double, ptr %scaled_sum, align 8
  %div5 = fdiv double %conv4, %8
  store double %div5, ptr %percentage, align 8
  %9 = load ptr, ptr %output.addr, align 8
  %10 = load double, ptr %percentage, align 8
  call void (ptr, ptr, ...) @_ZN4base13StringAppendFEPNSt7__cxx1112basic_stringIcSt11char_traitsIcESaIcEEEPKcz(ptr noundef %9, ptr noundef @.str.11, double noundef %10)
  br label %if.end

if.end:                                           ; preds = %if.then, %entry
  ret void
}