; Function Attrs: mustprogress uwtable
define dso_local void @_ZNK4base9Histogram23WriteAsciiBucketContextEliljPNSt7__cxx1112basic_stringIcSt11char_traitsIcESaIcEEE(ptr noundef nonnull align 8 dereferenceable(81) %this, i64 noundef %past, i32 noundef %current, i64 noundef %remaining, i32 noundef %i, ptr noundef %output) local_unnamed_addr #0 align 2 {
entry:
  %conv = sext i32 %current to i64
  %add = add nsw i64 %conv, %past
  %add2 = add nsw i64 %add, %remaining
  %conv3 = sitofp i64 %add2 to double
  %div = fdiv double %conv3, 1.000000e+02
  tail call void @_ZNK4base13HistogramBase21WriteAsciiBucketValueEidPNSt7__cxx1112basic_stringIcSt11char_traitsIcESaIcEEE(ptr noundef nonnull align 8 dereferenceable(44) %this, i32 noundef %current, double noundef %div, ptr noundef %output)
  %cmp.not = icmp eq i32 %i, 0
  br i1 %cmp.not, label %if.end, label %if.then

if.then:                                          ; preds = %entry
  %conv4 = sitofp i64 %past to double
  %div5 = fdiv double %conv4, %div
  tail call void (ptr, ptr, ...) @_ZN4base13StringAppendFEPNSt7__cxx1112basic_stringIcSt11char_traitsIcESaIcEEEPKcz(ptr noundef %output, ptr noundef nonnull @.str.11, double noundef %div5)
  br label %if.end

if.end:                                           ; preds = %if.then, %entry
  ret void
}